target datalayout = "e-m:e-p270:32:32-p271:32:32-p272:64:64-i64:64-i128:128-f80:128-n8:16:32:64-S128"
target triple = "x86_64-pc-linux-gnu"

%struct.SymTab = type { ptr, i64, i64 }
%struct.SymtabEntry_ = type { ptr, ptr, i16, i16, i32, i32, ptr }

@symtab = internal global %struct.SymTab zeroinitializer, align 8

; Function Attrs: nounwind uwtable
define dso_local ptr @symtab_find(ptr noundef %0, i32 noundef %1, i32 noundef %2, ptr noundef %3) #0 {
  %5 = alloca ptr, align 8
  %6 = alloca ptr, align 8
  %7 = alloca i32, align 4
  %8 = alloca i32, align 4
  %9 = alloca ptr, align 8
  %10 = alloca i64, align 8
  %11 = alloca ptr, align 8
  store ptr %0, ptr %6, align 8
  store i32 %1, ptr %7, align 4
  store i32 %2, ptr %8, align 4
  store ptr %3, ptr %9, align 8
  %12 = load i32, ptr %8, align 4
  %13 = zext i32 %12 to i64
  %14 = load i64, ptr getelementptr inbounds (%struct.SymTab, ptr @symtab, i32 0, i32 2), align 8
  %15 = and i64 %13, %14
  store i64 %15, ptr %10, align 8
  %16 = load ptr, ptr @symtab, align 8
  %17 = load i64, ptr %10, align 8
  %18 = getelementptr inbounds ptr, ptr %16, i64 %17
  %19 = load ptr, ptr %18, align 8
  store ptr %19, ptr %11, align 8
  br label %20

20:                                               ; preds = %54, %4
  %21 = load ptr, ptr %11, align 8
  %22 = icmp ne ptr %21, null
  br i1 %22, label %23, label %58

23:                                               ; preds = %20
  %24 = load ptr, ptr %11, align 8
  %25 = getelementptr inbounds %struct.SymtabEntry_, ptr %24, i32 0, i32 5
  %26 = load i32, ptr %25, align 8
  %27 = load i32, ptr %8, align 4
  %28 = icmp eq i32 %26, %27
  br i1 %28, label %29, label %54

29:                                               ; preds = %23
  %30 = load i32, ptr %7, align 4
  %31 = load ptr, ptr %11, align 8
  %32 = getelementptr inbounds %struct.SymtabEntry_, ptr %31, i32 0, i32 2
  %33 = load i16, ptr %32, align 8
  %34 = zext i16 %33 to i32
  %35 = icmp eq i32 %30, %34
  br i1 %35, label %36, label %54

36:                                               ; preds = %29
  %37 = load ptr, ptr %6, align 8
  %38 = load ptr, ptr %11, align 8
  %39 = getelementptr inbounds %struct.SymtabEntry_, ptr %38, i32 0, i32 6
  %40 = load ptr, ptr %39, align 8
  %41 = load i32, ptr %7, align 4
  %42 = zext i32 %41 to i64
  %43 = call i32 @memcmp(ptr noundef %37, ptr noundef %40, i64 noundef %42) #10
  %44 = icmp eq i32 %43, 0
  br i1 %44, label %45, label %54

45:                                               ; preds = %36
  %46 = load ptr, ptr %11, align 8
  %47 = getelementptr inbounds %struct.SymtabEntry_, ptr %46, i32 0, i32 3
  %48 = load i16, ptr %47, align 2
  %49 = zext i16 %48 to i32
  %50 = load ptr, ptr %9, align 8
  store i32 %49, ptr %50, align 4
  %51 = load ptr, ptr %11, align 8
  %52 = getelementptr inbounds %struct.SymtabEntry_, ptr %51, i32 0, i32 6
  %53 = load ptr, ptr %52, align 8
  store ptr %53, ptr %5, align 8
  br label %59

54:                                               ; preds = %36, %29, %23
  %55 = load ptr, ptr %11, align 8
  %56 = getelementptr inbounds %struct.SymtabEntry_, ptr %55, i32 0, i32 0
  %57 = load ptr, ptr %56, align 8
  store ptr %57, ptr %11, align 8
  br label %20, !llvm.loop !15

58:                                               ; preds = %20
  store ptr null, ptr %5, align 8
  br label %59

59:                                               ; preds = %58, %45
  %60 = load ptr, ptr %5, align 8
  ret ptr %60
}