; Function Attrs: nofree nounwind memory(read, argmem: readwrite, inaccessiblemem: none) uwtable
define dso_local ptr @symtab_find(ptr nocapture noundef readonly %0, i32 noundef %1, i32 noundef %2, ptr nocapture noundef writeonly %3) local_unnamed_addr #7 {
  %5 = zext i32 %2 to i64
  %6 = load i64, ptr @symtab.2, align 8
  %7 = and i64 %6, %5
  %8 = load ptr, ptr @symtab.0, align 8
  %9 = getelementptr inbounds ptr, ptr %8, i64 %7
  %.017 = load ptr, ptr %9, align 8
  %.not18 = icmp eq ptr %.017, null
  br i1 %.not18, label %.loopexit, label %.lr.ph

.lr.ph:                                           ; preds = %4
  %10 = zext nneg i32 %1 to i64
  br label %11

11:                                               ; preds = %.lr.ph, %30
  %.019 = phi ptr [ %.017, %.lr.ph ], [ %.0, %30 ]
  %12 = getelementptr inbounds i8, ptr %.019, i64 24
  %13 = load i32, ptr %12, align 8
  %14 = icmp eq i32 %13, %2
  br i1 %14, label %15, label %30

15:                                               ; preds = %11
  %16 = getelementptr inbounds i8, ptr %.019, i64 16
  %17 = load i16, ptr %16, align 8
  %18 = zext i16 %17 to i32
  %19 = icmp eq i32 %18, %1
  br i1 %19, label %20, label %30

20:                                               ; preds = %15
  %21 = getelementptr inbounds i8, ptr %.019, i64 32
  %22 = load ptr, ptr %21, align 8
  %bcmp = tail call i32 @bcmp(ptr %0, ptr %22, i64 %10)
  %23 = icmp eq i32 %bcmp, 0
  br i1 %23, label %24, label %30

24:                                               ; preds = %20
  %25 = getelementptr inbounds i8, ptr %.019, i64 32
  %26 = getelementptr inbounds i8, ptr %.019, i64 18
  %27 = load i16, ptr %26, align 2
  %28 = zext i16 %27 to i32
  store i32 %28, ptr %3, align 4
  %29 = load ptr, ptr %25, align 8
  br label %.loopexit

30:                                               ; preds = %20, %15, %11
  %.0 = load ptr, ptr %.019, align 8
  %.not = icmp eq ptr %.0, null
  br i1 %.not, label %.loopexit, label %11, !llvm.loop !11

.loopexit:                                        ; preds = %30, %4, %24
  %.014 = phi ptr [ %29, %24 ], [ null, %4 ], [ null, %30 ]
  ret ptr %.014
}